; Function Attrs: inlinehint mustprogress nounwind uwtable
define internal void @_ZN7testing12_GLOBAL__N_124ParameterizedTestFactoryIN11opencv_test29Layer_Softmax_softmax_3d_TestEED2Ev(ptr noundef nonnull align 8 captures(none) dereferenceable(48) initializes((0, 8)) %0) unnamed_addr #10 align 2 personality ptr @__gxx_personality_v0 {
  store ptr getelementptr inbounds nuw inrange(-16, 24) (i8, ptr @_ZTVN7testing12_GLOBAL__N_124ParameterizedTestFactoryIN11opencv_test29Layer_Softmax_softmax_3d_TestEEE, i64 16), ptr %0, align 8, !tbaa !24
  %2 = getelementptr inbounds nuw i8, ptr %0, i64 24
  %3 = load ptr, ptr %2, align 8, !tbaa !59
  %.not.i.i.i.i.i = icmp eq ptr %3, null
  br i1 %.not.i.i.i.i.i, label %_ZNSt11_Tuple_implILm0EJSt6vectorIiSaIiEEiSt5tupleIJN2cv3dnn14dnn4_v202412237BackendENS6_6TargetEEEEED2Ev.exit, label %4

4:                                                ; preds = %1
  tail call void @_ZdlPv(ptr noundef nonnull %3) #32
  br label %_ZNSt11_Tuple_implILm0EJSt6vectorIiSaIiEEiSt5tupleIJN2cv3dnn14dnn4_v202412237BackendENS6_6TargetEEEEED2Ev.exit

_ZNSt11_Tuple_implILm0EJSt6vectorIiSaIiEEiSt5tupleIJN2cv3dnn14dnn4_v202412237BackendENS6_6TargetEEEEED2Ev.exit: ; preds = %1, %4
  ret void
}